cpandas.indexes.base
_new_Index
p0
(cpandas.indexes.base
Index
p1
(dp2
S'data'
p3
cnumpy.core.multiarray
_reconstruct
p4
(cnumpy
ndarray
p5
(I0
tp6
S'b'
p7
tp8
Rp9
(I1
(I13
tp10
cnumpy
dtype
p11
(S'O8'
p12
I0
I1
tp13
Rp14
(I3
S'|'
p15
NNNI-1
I-1
I63
tp16
bI00
(lp17
VAgent
p18
aVAppCapture
p19
aVDocumentation
p20
aVFeature Request
p21
aVGeneral
p22
aVInstallation
p23
aVManager
p24
aVPhysical
p25
aVPlatform
p26
aVProduct
p27
aVSecurity
p28
aVTests-QE
p29
aVglobalization
p30
atp31
bsS'name'
p32
Nstp33
Rp34
.