cpandas.indexes.base
_new_Index
p0
(cpandas.indexes.base
Index
p1
(dp2
S'data'
p3
cnumpy.core.multiarray
_reconstruct
p4
(cnumpy
ndarray
p5
(I0
tp6
S'b'
p7
tp8
Rp9
(I1
(I4
tp10
cnumpy
dtype
p11
(S'O8'
p12
I0
I1
tp13
Rp14
(I3
S'|'
p15
NNNI-1
I-1
I63
tp16
bI00
(lp17
VDefect
p18
aVDocumentation
p19
aVFeature
p20
aVTask
p21
atp22
bsS'name'
p23
Nstp24
Rp25
.